Certificate:
    Data:
        Version: 3 (0x2)
        Serial Number: 1 (0x1)
    Signature Algorithm: sha256WithRSAEncryption
        Issuer: C=CN, ST=guangdong, L=shenzhen, O=Internet Widgits Pty Ltd, CN=ddd
        Validity
            Not Before: Aug  3 07:54:17 2019 GMT
            Not After : Aug  2 07:54:17 2020 GMT
        Subject: C=CN, ST=guangdong, O=Internet Widgits Pty Ltd, CN=ddd
        Subject Public Key Info:
            Public Key Algorithm: rsaEncryption
                Public-Key: (1024 bit)
                Modulus:
                    00:f3:9b:94:95:73:5c:4b:fe:9d:4e:63:ec:93:50:
                    bb:ee:19:fa:7c:4d:d1:48:40:60:36:97:e3:aa:38:
                    6d:1b:fa:62:22:7b:c0:5f:c1:1a:6f:37:14:19:eb:
                    4a:ec:05:a9:7c:fe:10:61:1e:81:f9:f0:8a:b7:bd:
                    27:65:81:6f:6b:d5:4c:82:dc:5d:8b:ad:29:d8:8c:
                    5c:77:e8:12:6d:10:e8:0c:74:bf:5a:aa:57:72:1c:
                    4f:4d:92:fa:5e:63:c4:35:ee:96:87:2a:a8:30:04:
                    6c:5e:ff:8d:9c:6e:36:ee:2b:b9:2e:b0:ce:f9:f8:
                    02:8f:2c:24:41:f9:76:9d:27
                Exponent: 65537 (0x10001)
        X509v3 extensions:
            X509v3 Basic Constraints: 
                CA:FALSE
            Netscape Comment: 
                OpenSSL Generated Certificate
            X509v3 Subject Key Identifier: 
                7C:2C:A0:8A:8C:8F:CA:EB:D8:32:97:46:EF:CF:33:C8:D4:03:F0:40
            X509v3 Authority Key Identifier: 
                keyid:48:9F:BD:3F:3F:25:2F:E0:7A:68:A5:62:9A:E2:DE:43:29:D7:B0:BF

    Signature Algorithm: sha256WithRSAEncryption
         5c:02:04:0d:58:12:c9:e0:61:d9:2f:10:81:6e:46:87:56:46:
         a8:3e:b6:a7:b2:90:8d:25:b7:84:e4:18:29:b8:bc:bf:fa:8d:
         90:91:a7:c9:34:b0:55:f7:8c:d8:7c:ea:92:a0:47:26:00:a2:
         b1:61:88:77:f0:55:91:75:7f:cf:7b:31:41:d5:b9:8b:96:9c:
         62:a9:8d:2c:f1:23:42:bb:1f:ea:7f:17:e2:a1:43:86:1b:a3:
         31:48:a3:1d:e7:03:40:c6:c6:8f:58:10:42:b6:ef:7b:ed:dc:
         81:4f:4e:b7:3a:a3:c5:81:b5:70:f3:3e:82:cb:ef:c8:a1:07:
         a0:b6:d5:81:b1:1c:45:06:2b:9c:db:9e:4f:38:18:25:94:9c:
         b3:d3:17:70:f0:a1:cb:45:a4:d4:db:b0:f1:45:06:2c:e0:41:
         a1:f5:38:d5:89:20:27:aa:d7:16:df:49:ff:af:a5:19:c5:ad:
         ca:0f:24:7c:a1:27:89:45:6a:70:9e:5f:e9:30:0d:93:7a:a5:
         46:f5:58:8a:77:31:63:3f:58:52:4b:3c:7c:63:a9:e3:7b:f2:
         f4:fd:9d:87:3e:43:25:04:c5:b2:b0:54:14:69:f1:8c:3c:34:
         50:6c:03:59:d4:23:fd:37:c3:e4:c4:3a:58:ca:1a:61:f9:ee:
         d0:da:d2:91
-----BEGIN CERTIFICATE-----
MIIDKTCCAhGgAwIBAgIBATANBgkqhkiG9w0BAQsFADBlMQswCQYDVQQGEwJDTjES
MBAGA1UECAwJZ3Vhbmdkb25nMREwDwYDVQQHDAhzaGVuemhlbjEhMB8GA1UECgwY
SW50ZXJuZXQgV2lkZ2l0cyBQdHkgTHRkMQwwCgYDVQQDDANkZGQwHhcNMTkwODAz
MDc1NDE3WhcNMjAwODAyMDc1NDE3WjBSMQswCQYDVQQGEwJDTjESMBAGA1UECAwJ
Z3Vhbmdkb25nMSEwHwYDVQQKDBhJbnRlcm5ldCBXaWRnaXRzIFB0eSBMdGQxDDAK
BgNVBAMMA2RkZDCBnzANBgkqhkiG9w0BAQEFAAOBjQAwgYkCgYEA85uUlXNcS/6d
TmPsk1C77hn6fE3RSEBgNpfjqjhtG/piInvAX8EabzcUGetK7AWpfP4QYR6B+fCK
t70nZYFva9VMgtxdi60p2Ixcd+gSbRDoDHS/WqpXchxPTZL6XmPENe6WhyqoMARs
Xv+NnG427iu5LrDO+fgCjywkQfl2nScCAwEAAaN7MHkwCQYDVR0TBAIwADAsBglg
hkgBhvhCAQ0EHxYdT3BlblNTTCBHZW5lcmF0ZWQgQ2VydGlmaWNhdGUwHQYDVR0O
BBYEFHwsoIqMj8rr2DKXRu/PM8jUA/BAMB8GA1UdIwQYMBaAFEifvT8/JS/gemil
Ypri3kMp17C/MA0GCSqGSIb3DQEBCwUAA4IBAQBcAgQNWBLJ4GHZLxCBbkaHVkao
PranspCNJbeE5BgpuLy/+o2QkafJNLBV94zYfOqSoEcmAKKxYYh38FWRdX/PezFB
1bmLlpxiqY0s8SNCux/qfxfioUOGG6MxSKMd5wNAxsaPWBBCtu977dyBT063OqPF
gbVw8z6Cy+/IoQegttWBsRxFBiuc255POBgllJyz0xdw8KHLRaTU27DxRQYs4EGh
9TjViSAnqtcW30n/r6UZxa3KDyR8oSeJRWpwnl/pMA2TeqVG9ViKdzFjP1hSSzx8
Y6nje/L0/Z2HPkMlBMWysFQUafGMPDRQbANZ1CP9N8PkxDpYyhph+e7Q2tKR
-----END CERTIFICATE-----
